; ModuleID = '44/969.c'
source_filename = "44/969.c"
target datalayout = "e-m:e-p270:32:32-p271:32:32-p272:64:64-i64:64-f80:128-n8:16:32:64-S128"
target triple = "x86_64-pc-linux-gnu"

@.str = private unnamed_addr constant [3 x i8] c"%d\00", align 1
@.str.1 = private unnamed_addr constant [4 x i8] c"%d\0A\00", align 1
@.str.2 = private unnamed_addr constant [3 x i8] c"0\0A\00", align 1

; Function Attrs: noinline nounwind uwtable
define dso_local i32 @reverse(i32 %0) #0 {
  %2 = alloca i32, align 4
  %3 = alloca i32, align 4
  %4 = alloca i32, align 4
  %5 = alloca i32, align 4
  %6 = alloca i32, align 4
  %7 = alloca i32, align 4
  %8 = alloca i32, align 4
  store i32 %0, i32* %2, align 4
  store i32 0, i32* %3, align 4
  store i32 0, i32* %4, align 4
  store i32 1, i32* %7, align 4
  store i32 1, i32* %8, align 4
  %9 = load i32, i32* %2, align 4
  store i32 %9, i32* %6, align 4
  br label %10

10:                                               ; preds = %17, %1
  %11 = load i32, i32* %6, align 4
  %12 = sdiv i32 %11, 10
  store i32 %12, i32* %6, align 4
  %13 = load i32, i32* %3, align 4
  %14 = add nsw i32 %13, 1
  store i32 %14, i32* %3, align 4
  %15 = load i32, i32* %7, align 4
  %16 = mul nsw i32 10, %15
  store i32 %16, i32* %7, align 4
  br label %17

17:                                               ; preds = %10
  %18 = load i32, i32* %6, align 4
  %19 = icmp sgt i32 %18, 0
  br i1 %19, label %10, label %20

20:                                               ; preds = %17
  store i32 1, i32* %5, align 4
  br label %21

21:                                               ; preds = %47, %20
  %22 = load i32, i32* %5, align 4
  %23 = load i32, i32* %3, align 4
  %24 = icmp sle i32 %22, %23
  br i1 %24, label %25, label %50

25:                                               ; preds = %21
  %26 = load i32, i32* %2, align 4
  %27 = load i32, i32* %7, align 4
  %28 = sdiv i32 %27, 10
  %29 = sdiv i32 %26, %28
  %30 = load i32, i32* %8, align 4
  %31 = mul nsw i32 %29, %30
  %32 = load i32, i32* %4, align 4
  %33 = add nsw i32 %31, %32
  store i32 %33, i32* %4, align 4
  %34 = load i32, i32* %2, align 4
  %35 = load i32, i32* %2, align 4
  %36 = load i32, i32* %7, align 4
  %37 = sdiv i32 %36, 10
  %38 = sdiv i32 %35, %37
  %39 = load i32, i32* %7, align 4
  %40 = sdiv i32 %39, 10
  %41 = mul nsw i32 %38, %40
  %42 = sub nsw i32 %34, %41
  store i32 %42, i32* %2, align 4
  %43 = load i32, i32* %8, align 4
  %44 = mul nsw i32 %43, 10
  store i32 %44, i32* %8, align 4
  %45 = load i32, i32* %7, align 4
  %46 = sdiv i32 %45, 10
  store i32 %46, i32* %7, align 4
  br label %47

47:                                               ; preds = %25
  %48 = load i32, i32* %5, align 4
  %49 = add nsw i32 %48, 1
  store i32 %49, i32* %5, align 4
  br label %21

50:                                               ; preds = %21
  %51 = load i32, i32* %4, align 4
  ret i32 %51
}

; Function Attrs: noinline nounwind uwtable
define dso_local void @main() #0 {
  %1 = alloca [6 x i32], align 16
  %2 = alloca i32, align 4
  store i32 0, i32* %2, align 4
  br label %3

3:                                                ; preds = %11, %0
  %4 = load i32, i32* %2, align 4
  %5 = icmp slt i32 %4, 6
  br i1 %5, label %6, label %14

6:                                                ; preds = %3
  %7 = load i32, i32* %2, align 4
  %8 = sext i32 %7 to i64
  %9 = getelementptr inbounds [6 x i32], [6 x i32]* %1, i64 0, i64 %8
  %10 = call i32 (i8*, ...) @__isoc99_scanf(i8* getelementptr inbounds ([3 x i8], [3 x i8]* @.str, i64 0, i64 0), i32* %9)
  br label %11

11:                                               ; preds = %6
  %12 = load i32, i32* %2, align 4
  %13 = add nsw i32 %12, 1
  store i32 %13, i32* %2, align 4
  br label %3

14:                                               ; preds = %3
  store i32 0, i32* %2, align 4
  br label %15

15:                                               ; preds = %73, %14
  %16 = load i32, i32* %2, align 4
  %17 = icmp slt i32 %16, 6
  br i1 %17, label %18, label %76

18:                                               ; preds = %15
  %19 = load i32, i32* %2, align 4
  %20 = sext i32 %19 to i64
  %21 = getelementptr inbounds [6 x i32], [6 x i32]* %1, i64 0, i64 %20
  %22 = load i32, i32* %21, align 4
  %23 = icmp ne i32 %22, 0
  br i1 %23, label %24, label %64

24:                                               ; preds = %18
  br label %25

25:                                               ; preds = %32, %24
  %26 = load i32, i32* %2, align 4
  %27 = sext i32 %26 to i64
  %28 = getelementptr inbounds [6 x i32], [6 x i32]* %1, i64 0, i64 %27
  %29 = load i32, i32* %28, align 4
  %30 = srem i32 %29, 10
  %31 = icmp eq i32 %30, 0
  br i1 %31, label %32, label %41

32:                                               ; preds = %25
  %33 = load i32, i32* %2, align 4
  %34 = sext i32 %33 to i64
  %35 = getelementptr inbounds [6 x i32], [6 x i32]* %1, i64 0, i64 %34
  %36 = load i32, i32* %35, align 4
  %37 = sdiv i32 %36, 10
  %38 = load i32, i32* %2, align 4
  %39 = sext i32 %38 to i64
  %40 = getelementptr inbounds [6 x i32], [6 x i32]* %1, i64 0, i64 %39
  store i32 %37, i32* %40, align 4
  br label %25

41:                                               ; preds = %25
  %42 = load i32, i32* %2, align 4
  %43 = sext i32 %42 to i64
  %44 = getelementptr inbounds [6 x i32], [6 x i32]* %1, i64 0, i64 %43
  %45 = load i32, i32* %44, align 4
  %46 = icmp sgt i32 %45, 0
  br i1 %46, label %47, label %54

47:                                               ; preds = %41
  %48 = load i32, i32* %2, align 4
  %49 = sext i32 %48 to i64
  %50 = getelementptr inbounds [6 x i32], [6 x i32]* %1, i64 0, i64 %49
  %51 = load i32, i32* %50, align 4
  %52 = call i32 @reverse(i32 %51)
  %53 = call i32 (i8*, ...) @printf(i8* getelementptr inbounds ([4 x i8], [4 x i8]* @.str.1, i64 0, i64 0), i32 %52)
  br label %63

54:                                               ; preds = %41
  %55 = load i32, i32* %2, align 4
  %56 = sext i32 %55 to i64
  %57 = getelementptr inbounds [6 x i32], [6 x i32]* %1, i64 0, i64 %56
  %58 = load i32, i32* %57, align 4
  %59 = sub nsw i32 0, %58
  %60 = call i32 @reverse(i32 %59)
  %61 = sub nsw i32 0, %60
  %62 = call i32 (i8*, ...) @printf(i8* getelementptr inbounds ([4 x i8], [4 x i8]* @.str.1, i64 0, i64 0), i32 %61)
  br label %63

63:                                               ; preds = %54, %47
  br label %64

64:                                               ; preds = %63, %18
  %65 = load i32, i32* %2, align 4
  %66 = sext i32 %65 to i64
  %67 = getelementptr inbounds [6 x i32], [6 x i32]* %1, i64 0, i64 %66
  %68 = load i32, i32* %67, align 4
  %69 = icmp eq i32 %68, 0
  br i1 %69, label %70, label %72

70:                                               ; preds = %64
  %71 = call i32 (i8*, ...) @printf(i8* getelementptr inbounds ([3 x i8], [3 x i8]* @.str.2, i64 0, i64 0))
  br label %72

72:                                               ; preds = %70, %64
  br label %73

73:                                               ; preds = %72
  %74 = load i32, i32* %2, align 4
  %75 = add nsw i32 %74, 1
  store i32 %75, i32* %2, align 4
  br label %15

76:                                               ; preds = %15
  ret void
}

declare dso_local i32 @__isoc99_scanf(i8*, ...) #1

declare dso_local i32 @printf(i8*, ...) #1


!llvm.module.flags = !{!0}
!llvm.ident = !{!1}

!0 = !{i32 1, !"wchar_size", i32 4}
!1 = !{!"clang version 10.0.0-4ubuntu1 "}
